target datalayout = "e-m:e-p270:32:32-p271:32:32-p272:64:64-i64:64-i128:128-f80:128-n8:16:32:64-S128"
target triple = "x86_64-pc-linux-gnu"

%class.btVector3 = type { [4 x float] }
%class.btAlignedObjectArray.2 = type <{ [4 x i8], i32, i32, [4 x i8], ptr, i8, [7 x i8] }>
%class.btDeformableMultiBodyDynamicsWorld = type { %class.btMultiBodyDynamicsWorld, ptr, %class.btAlignedObjectArray.24, i32, i8, i8, i8, %struct.btSoftBodyWorldInfo, float, i32, i8, i8, i8, ptr, ptr }
%class.btMultiBodyDynamicsWorld = type { %class.btDiscreteDynamicsWorld.base, [4 x i8], %class.btAlignedObjectArray.14, %class.btAlignedObjectArray.16, %class.btAlignedObjectArray.16, ptr, ptr, %class.btAlignedObjectArray.18, %class.btAlignedObjectArray.2, %class.btAlignedObjectArray.18, %class.btAlignedObjectArray.2, %class.btAlignedObjectArray.20, %class.btAlignedObjectArray.2, %class.btAlignedObjectArray.22 }
%class.btDiscreteDynamicsWorld.base = type <{ %class.btDynamicsWorld, %class.btAlignedObjectArray.6, ptr, ptr, ptr, %class.btAlignedObjectArray.6, %class.btAlignedObjectArray.8, %class.btVector3, float, float, i8, i8, i8, i8, [4 x i8], %class.btAlignedObjectArray.10, i32, i8, [3 x i8], %class.btAlignedObjectArray.12, %class.btSpinMutex }>
%class.btDynamicsWorld = type { %class.btCollisionWorld.base, ptr, ptr, ptr, %struct.btContactSolverInfo }
%class.btCollisionWorld.base = type <{ ptr, %class.btAlignedObjectArray.4, ptr, %struct.btDispatcherInfo, ptr, ptr, i8 }>
%class.btAlignedObjectArray.4 = type <{ [4 x i8], i32, i32, [4 x i8], ptr, i8, [7 x i8] }>
%struct.btDispatcherInfo = type <{ float, i32, i32, float, i8, [7 x i8], ptr, i8, i8, i8, i8, float, i8, [3 x i8], float, i8, [7 x i8] }>
%struct.btContactSolverInfo = type { %struct.btContactSolverInfoData }
%struct.btContactSolverInfoData = type { float, float, float, float, float, i32, float, float, float, float, float, float, float, float, float, float, i32, float, float, float, float, float, i32, i32, i32, float, float, float, float, i8, i8, i32, i32 }
%class.btAlignedObjectArray.6 = type <{ [4 x i8], i32, i32, [4 x i8], ptr, i8, [7 x i8] }>
%class.btAlignedObjectArray.8 = type <{ [4 x i8], i32, i32, [4 x i8], ptr, i8, [7 x i8] }>
%class.btAlignedObjectArray.10 = type <{ [4 x i8], i32, i32, [4 x i8], ptr, i8, [7 x i8] }>
%class.btAlignedObjectArray.12 = type <{ [4 x i8], i32, i32, [4 x i8], ptr, i8, [7 x i8] }>
%class.btSpinMutex = type { i32 }
%class.btAlignedObjectArray.14 = type <{ [4 x i8], i32, i32, [4 x i8], ptr, i8, [7 x i8] }>
%class.btAlignedObjectArray.16 = type <{ [4 x i8], i32, i32, [4 x i8], ptr, i8, [7 x i8] }>
%class.btAlignedObjectArray.18 = type <{ [4 x i8], i32, i32, [4 x i8], ptr, i8, [7 x i8] }>
%class.btAlignedObjectArray.20 = type <{ [4 x i8], i32, i32, [4 x i8], ptr, i8, [7 x i8] }>
%class.btAlignedObjectArray.22 = type <{ [4 x i8], i32, i32, [4 x i8], ptr, i8, [7 x i8] }>
%class.btAlignedObjectArray.24 = type <{ [4 x i8], i32, i32, [4 x i8], ptr, i8, [7 x i8] }>
%struct.btSoftBodyWorldInfo = type { float, float, float, float, %class.btVector3, ptr, ptr, %class.btVector3, %struct.btSparseSdf }
%struct.btSparseSdf = type { %class.btAlignedObjectArray.26, float, float, i32, i32, i32, i32, i32, [4 x i8] }
%class.btAlignedObjectArray.26 = type <{ [4 x i8], i32, i32, [4 x i8], ptr, i8, [7 x i8] }>

; Function Attrs: mustprogress uwtable
define dso_local void @_ZN34btDeformableMultiBodyDynamicsWorld21beforeSolverCallbacksEf(ptr noundef nonnull align 8 dereferenceable(1056) %0, float noundef %1) #7 align 2 {
  %3 = alloca ptr, align 8
  %4 = alloca float, align 4
  store ptr %0, ptr %3, align 8, !tbaa !58
  store float %1, ptr %4, align 4, !tbaa !12
  %5 = load ptr, ptr %3, align 8
  %6 = getelementptr inbounds nuw %class.btDynamicsWorld, ptr %5, i32 0, i32 1
  %7 = load ptr, ptr %6, align 8, !tbaa !214
  %8 = icmp ne ptr null, %7
  br i1 %8, label %9, label %13

9:                                                ; preds = %2
  %10 = getelementptr inbounds nuw %class.btDynamicsWorld, ptr %5, i32 0, i32 1
  %11 = load ptr, ptr %10, align 8, !tbaa !214
  %12 = load float, ptr %4, align 4, !tbaa !12
  call void %11(ptr noundef %5, float noundef %12)
  br label %13

13:                                               ; preds = %9, %2
  %14 = getelementptr inbounds nuw %class.btDeformableMultiBodyDynamicsWorld, ptr %5, i32 0, i32 14
  %15 = load ptr, ptr %14, align 8, !tbaa !125
  %16 = icmp ne ptr null, %15
  br i1 %16, label %17, label %22

17:                                               ; preds = %13
  %18 = getelementptr inbounds nuw %class.btDeformableMultiBodyDynamicsWorld, ptr %5, i32 0, i32 14
  %19 = load ptr, ptr %18, align 8, !tbaa !125
  %20 = getelementptr inbounds nuw %class.btDeformableMultiBodyDynamicsWorld, ptr %5, i32 0, i32 8
  %21 = load float, ptr %20, align 8, !tbaa !136
  call void %19(float noundef %21, ptr noundef %5)
  br label %22

22:                                               ; preds = %17, %13
  ret void
}