; Function Attrs: mustprogress uwtable
define dso_local void @_ZN34btDeformableMultiBodyDynamicsWorld21beforeSolverCallbacksEf(ptr noundef nonnull align 8 dereferenceable(1056) %0, float noundef %1) local_unnamed_addr #4 align 2 {
  %3 = getelementptr inbounds nuw i8, ptr %0, i64 128
  %4 = load ptr, ptr %3, align 8, !tbaa !231
  %.not = icmp eq ptr %4, null
  br i1 %.not, label %6, label %5

5:                                                ; preds = %2
  tail call void %4(ptr noundef nonnull %0, float noundef %1)
  br label %6

6:                                                ; preds = %5, %2
  %7 = getelementptr inbounds nuw i8, ptr %0, i64 1048
  %8 = load ptr, ptr %7, align 8, !tbaa !152
  %.not3 = icmp eq ptr %8, null
  br i1 %.not3, label %12, label %9

9:                                                ; preds = %6
  %10 = getelementptr inbounds nuw i8, ptr %0, i64 1024
  %11 = load float, ptr %10, align 8, !tbaa !175
  tail call void %8(float noundef %11, ptr noundef nonnull %0)
  br label %12

12:                                               ; preds = %9, %6
  ret void
}